; Function Attrs: mustprogress nofree nounwind willreturn memory(read) uwtable
define noundef i32 @_Z8stricompPKcS0_(ptr noundef readonly %0, ptr noundef readonly %1) local_unnamed_addr #4 {
  %3 = load i8, ptr %0, align 1
  %4 = sext i8 %3 to i32
  %5 = tail call i32 @toupper(i32 noundef %4) #17
  %6 = load i8, ptr %1, align 1
  %7 = sext i8 %6 to i32
  %8 = tail call i32 @toupper(i32 noundef %7) #17
  %9 = icmp eq i32 %5, %8
  br i1 %9, label %.lr.ph, label %._crit_edge

.lr.ph:                                           ; preds = %2, %12
  %10 = phi i8 [ %15, %12 ], [ %3, %2 ]
  %.012 = phi ptr [ %14, %12 ], [ %1, %2 ]
  %.0711 = phi ptr [ %13, %12 ], [ %0, %2 ]
  %11 = icmp eq i8 %10, 0
  br i1 %11, label %.loopexit, label %12

12:                                               ; preds = %.lr.ph
  %13 = getelementptr inbounds i8, ptr %.0711, i64 1
  %14 = getelementptr inbounds i8, ptr %.012, i64 1
  %15 = load i8, ptr %13, align 1
  %16 = sext i8 %15 to i32
  %17 = tail call i32 @toupper(i32 noundef %16) #17
  %18 = load i8, ptr %14, align 1
  %19 = sext i8 %18 to i32
  %20 = tail call i32 @toupper(i32 noundef %19) #17
  %21 = icmp eq i32 %17, %20
  br i1 %21, label %.lr.ph, label %._crit_edge, !llvm.loop !6

._crit_edge:                                      ; preds = %12, %2
  %.07.lcssa = phi ptr [ %0, %2 ], [ %13, %12 ]
  %.0.lcssa = phi ptr [ %1, %2 ], [ %14, %12 ]
  %22 = icmp ult ptr %.07.lcssa, %.0.lcssa
  %23 = select i1 %22, i32 -1, i32 1
  br label %.loopexit

.loopexit:                                        ; preds = %.lr.ph, %._crit_edge
  %.08 = phi i32 [ %23, %._crit_edge ], [ 0, %.lr.ph ]
  ret i32 %.08
}